(lp0
Vlineitem#l_commitdate
p1
aVlineitem#l_commitdate,l_partkey
p2
aVlineitem#l_commitdate,l_quantity
p3
aVlineitem#l_commitdate,l_suppkey
p4
aVlineitem#l_discount
p5
aVlineitem#l_discount,l_partkey
p6
aVlineitem#l_discount,l_partkey,l_receiptdate
p7
aVlineitem#l_discount,l_receiptdate
p8
aVlineitem#l_discount,l_receiptdate,l_partkey
p9
aVlineitem#l_discount,l_shipdate
p10
aVlineitem#l_linestatus
p11
aVlineitem#l_linestatus,l_orderkey
p12
aVlineitem#l_linestatus,l_orderkey,l_shipdate
p13
aVlineitem#l_linestatus,l_shipdate
p14
aVlineitem#l_linestatus,l_shipdate,l_orderkey
p15
aVlineitem#l_orderkey
p16
aVlineitem#l_orderkey,l_linestatus
p17
aVlineitem#l_orderkey,l_linestatus,l_shipdate
p18
aVlineitem#l_orderkey,l_partkey
p19
aVlineitem#l_orderkey,l_partkey,l_suppkey
p20
aVlineitem#l_orderkey,l_returnflag
p21
aVlineitem#l_orderkey,l_returnflag,l_partkey
p22
aVlineitem#l_orderkey,l_shipdate
p23
aVlineitem#l_orderkey,l_shipdate,l_linestatus
p24
aVlineitem#l_orderkey,l_suppkey
p25
aVlineitem#l_orderkey,l_suppkey,l_partkey
p26
aVlineitem#l_orderkey,l_suppkey,l_receiptdate
p27
aVlineitem#l_partkey
p28
aVlineitem#l_partkey,l_commitdate
p29
aVlineitem#l_partkey,l_discount
p30
aVlineitem#l_partkey,l_discount,l_receiptdate
p31
aVlineitem#l_partkey,l_orderkey
p32
aVlineitem#l_partkey,l_orderkey,l_suppkey
p33
aVlineitem#l_partkey,l_receiptdate
p34
aVlineitem#l_partkey,l_receiptdate,l_discount
p35
aVlineitem#l_partkey,l_suppkey
p36
aVlineitem#l_partkey,l_suppkey,l_orderkey
p37
aVlineitem#l_quantity
p38
aVlineitem#l_quantity,l_commitdate
p39
aVlineitem#l_receiptdate
p40
aVlineitem#l_receiptdate,l_discount
p41
aVlineitem#l_receiptdate,l_discount,l_partkey
p42
aVlineitem#l_receiptdate,l_partkey
p43
aVlineitem#l_receiptdate,l_partkey,l_discount
p44
aVlineitem#l_returnflag
p45
aVlineitem#l_returnflag,l_orderkey
p46
aVlineitem#l_returnflag,l_orderkey,l_partkey
p47
aVlineitem#l_returnflag,l_suppkey
p48
aVlineitem#l_returnflag,l_suppkey,l_partkey
p49
aVlineitem#l_shipdate
p50
aVlineitem#l_shipdate,l_discount
p51
aVlineitem#l_shipdate,l_linestatus
p52
aVlineitem#l_shipdate,l_linestatus,l_orderkey
p53
aVlineitem#l_shipdate,l_orderkey
p54
aVlineitem#l_shipdate,l_orderkey,l_linestatus
p55
aVlineitem#l_shipdate,l_suppkey
p56
aVlineitem#l_shipdate,l_suppkey,l_orderkey
p57
aVlineitem#l_shipmode
p58
aVlineitem#l_suppkey
p59
aVlineitem#l_suppkey,l_commitdate
p60
aVlineitem#l_suppkey,l_orderkey
p61
aVlineitem#l_suppkey,l_orderkey,l_partkey
p62
aVlineitem#l_suppkey,l_orderkey,l_receiptdate
p63
aVlineitem#l_suppkey,l_partkey
p64
aVlineitem#l_suppkey,l_partkey,l_orderkey
p65
aVlineitem#l_suppkey,l_returnflag
p66
aVlineitem#l_suppkey,l_returnflag,l_partkey
p67
aVlineitem#l_suppkey,l_shipdate
p68
aVlineitem#l_suppkey,l_shipdate,l_orderkey
p69
a.