(lp0
Vcustomer#c_custkey
p1
aVcustomer#c_custkey,c_mktsegment
p2
aVcustomer#c_mktsegment
p3
aVcustomer#c_mktsegment,c_custkey
p4
aVcustomer#c_nationkey
p5
aVlineitem#l_commitdate
p6
aVlineitem#l_commitdate,l_receiptdate
p7
aVlineitem#l_orderkey
p8
aVlineitem#l_orderkey,l_receiptdate
p9
aVlineitem#l_orderkey,l_returnflag
p10
aVlineitem#l_orderkey,l_shipdate
p11
aVlineitem#l_orderkey,l_shipmode
p12
aVlineitem#l_partkey
p13
aVlineitem#l_partkey,l_quantity
p14
aVlineitem#l_partkey,l_quantity,l_extendedprice
p15
aVlineitem#l_partkey,l_shipdate
p16
aVlineitem#l_partkey,l_suppkey
p17
aVlineitem#l_partkey,l_suppkey,l_shipdate
p18
aVlineitem#l_quantity
p19
aVlineitem#l_receiptdate
p20
aVlineitem#l_receiptdate,l_commitdate
p21
aVlineitem#l_returnflag
p22
aVlineitem#l_returnflag,l_orderkey
p23
aVlineitem#l_shipdate
p24
aVlineitem#l_shipmode
p25
aVlineitem#l_shipmode,l_orderkey
p26
aVlineitem#l_suppkey
p27
aVlineitem#l_suppkey,l_partkey
p28
aVlineitem#l_suppkey,l_partkey,l_shipdate
p29
aVlineitem#l_suppkey,l_shipdate
p30
aVnation#n_name
p31
aVnation#n_name,n_nationkey
p32
aVnation#n_nationkey
p33
aVnation#n_nationkey,n_name
p34
aVnation#n_regionkey
p35
aVorders#o_custkey
p36
aVorders#o_custkey,o_orderdate
p37
aVorders#o_custkey,o_orderdate,o_orderkey
p38
aVorders#o_orderdate
p39
aVorders#o_orderkey
p40
aVorders#o_orderkey,o_orderdate
p41
aVorders#o_orderkey,o_orderdate,o_custkey
p42
aVorders#o_orderkey,o_orderdate,o_orderpriority
p43
aVorders#o_orderkey,o_orderstatus
p44
aVorders#o_orderstatus
p45
aVorders#o_orderstatus,o_orderkey
p46
aVpart#p_brand
p47
aVpart#p_brand,p_container
p48
aVpart#p_brand,p_container,p_partkey
p49
aVpart#p_brand,p_partkey
p50
aVpart#p_brand,p_partkey,p_container
p51
aVpart#p_container
p52
aVpart#p_container,p_brand
p53
aVpart#p_container,p_brand,p_partkey
p54
aVpart#p_container,p_partkey
p55
aVpart#p_container,p_partkey,p_brand
p56
aVpart#p_partkey
p57
aVpart#p_partkey,p_brand
p58
aVpart#p_partkey,p_brand,p_container
p59
aVpart#p_partkey,p_container
p60
aVpart#p_partkey,p_container,p_brand
p61
aVpart#p_partkey,p_type
p62
aVpart#p_type
p63
aVpart#p_type,p_partkey
p64
aVpartsupp#ps_availqty
p65
aVpartsupp#ps_partkey
p66
aVpartsupp#ps_partkey,ps_availqty
p67
aVpartsupp#ps_partkey,ps_availqty,ps_suppkey
p68
aVpartsupp#ps_partkey,ps_suppkey
p69
aVpartsupp#ps_partkey,ps_suppkey,ps_availqty
p70
aVpartsupp#ps_suppkey
p71
aVpartsupp#ps_suppkey,ps_availqty
p72
aVpartsupp#ps_suppkey,ps_availqty,ps_partkey
p73
aVpartsupp#ps_suppkey,ps_partkey
p74
aVpartsupp#ps_suppkey,ps_partkey,ps_availqty
p75
aVregion#r_name
p76
aVregion#r_name,r_regionkey
p77
aVregion#r_regionkey
p78
aVregion#r_regionkey,r_name
p79
aVsupplier#s_nationkey
p80
aVsupplier#s_suppkey
p81
a.